target datalayout = "e-m:e-p270:32:32-p271:32:32-p272:64:64-i64:64-i128:128-f80:128-n8:16:32:64-S128"
target triple = "x86_64-pc-linux-gnu"

%struct.ident_t = type { i32, i32, i32, i32, ptr }
%"struct.faiss::Level1Quantizer" = type { ptr, i64, i8, i8, %"struct.faiss::ClusteringParameters", ptr }
%"struct.faiss::ClusteringParameters" = type { i32, i32, i8, i8, i8, i8, i8, i32, i32, i32, i64 }
%"class.std::unique_ptr" = type { %"struct.std::__uniq_ptr_data" }
%"struct.std::__uniq_ptr_data" = type { %"class.std::__uniq_ptr_impl" }
%"class.std::__uniq_ptr_impl" = type { %"class.std::tuple" }
%"class.std::tuple" = type { %"struct.std::_Tuple_impl" }
%"struct.std::_Tuple_impl" = type { %"struct.std::_Head_base.17" }
%"struct.std::_Head_base.17" = type { ptr }
%"struct.faiss::IndexIVFFastScan::CoarseQuantized" = type { i64, ptr, ptr }

@1 = private unnamed_addr constant %struct.ident_t { i32 0, i32 514, i32 0, i32 22, ptr @0 }, align 8

; Function Attrs: mustprogress nounwind uwtable
define linkonce_odr noundef nonnull align 8 dereferenceable(8) ptr @_ZNSt10_Head_baseILm0EPfLb0EE7_M_headERKS1_(ptr noundef nonnull align 8 dereferenceable(8) %0) #0 comdat align 2 {
  %2 = alloca ptr, align 8
  store ptr %0, ptr %2, align 8
  %3 = load ptr, ptr %2, align 8
  %4 = getelementptr inbounds %"struct.std::_Head_base.17", ptr %3, i32 0, i32 0
  ret ptr %4
}

; Function Attrs: mustprogress nounwind uwtable
define linkonce_odr noundef nonnull align 8 dereferenceable(8) ptr @_ZNSt11_Tuple_implILm0EJPfSt14default_deleteIA_fEEE7_M_headERKS4_(ptr noundef nonnull align 8 dereferenceable(8) %0) #0 comdat align 2 {
  %2 = alloca ptr, align 8
  store ptr %0, ptr %2, align 8
  %3 = load ptr, ptr %2, align 8
  %4 = call noundef nonnull align 8 dereferenceable(8) ptr @_ZNSt10_Head_baseILm0EPfLb0EE7_M_headERKS1_(ptr noundef nonnull align 8 dereferenceable(8) %3) #14
  ret ptr %4
}

; Function Attrs: mustprogress nounwind uwtable
define linkonce_odr noundef nonnull align 8 dereferenceable(8) ptr @_ZSt12__get_helperILm0EPfJSt14default_deleteIA_fEEERKT0_RKSt11_Tuple_implIXT_EJS4_DpT1_EE(ptr noundef nonnull align 8 dereferenceable(8) %0) #0 comdat {
  %2 = alloca ptr, align 8
  store ptr %0, ptr %2, align 8
  %3 = load ptr, ptr %2, align 8
  %4 = call noundef nonnull align 8 dereferenceable(8) ptr @_ZNSt11_Tuple_implILm0EJPfSt14default_deleteIA_fEEE7_M_headERKS4_(ptr noundef nonnull align 8 dereferenceable(8) %3) #14
  ret ptr %4
}

; Function Attrs: mustprogress nounwind uwtable
define linkonce_odr noundef nonnull align 8 dereferenceable(8) ptr @_ZSt3getILm0EJPfSt14default_deleteIA_fEEERKNSt13tuple_elementIXT_ESt5tupleIJDpT0_EEE4typeERKS8_(ptr noundef nonnull align 8 dereferenceable(8) %0) #0 comdat {
  %2 = alloca ptr, align 8
  store ptr %0, ptr %2, align 8
  %3 = load ptr, ptr %2, align 8
  %4 = call noundef nonnull align 8 dereferenceable(8) ptr @_ZSt12__get_helperILm0EPfJSt14default_deleteIA_fEEERKT0_RKSt11_Tuple_implIXT_EJS4_DpT1_EE(ptr noundef nonnull align 8 dereferenceable(8) %3) #14
  ret ptr %4
}

; Function Attrs: mustprogress nounwind uwtable
define linkonce_odr noundef ptr @_ZNKSt15__uniq_ptr_implIfSt14default_deleteIA_fEE6_M_ptrEv(ptr noundef nonnull align 8 dereferenceable(8) %0) #0 comdat align 2 {
  %2 = alloca ptr, align 8
  store ptr %0, ptr %2, align 8
  %3 = load ptr, ptr %2, align 8
  %4 = getelementptr inbounds %"class.std::__uniq_ptr_impl", ptr %3, i32 0, i32 0
  %5 = call noundef nonnull align 8 dereferenceable(8) ptr @_ZSt3getILm0EJPfSt14default_deleteIA_fEEERKNSt13tuple_elementIXT_ESt5tupleIJDpT0_EEE4typeERKS8_(ptr noundef nonnull align 8 dereferenceable(8) %4) #14
  %6 = load ptr, ptr %5, align 8
  ret ptr %6
}

; Function Attrs: mustprogress nounwind uwtable
define linkonce_odr noundef ptr @_ZNKSt10unique_ptrIA_fSt14default_deleteIS0_EE3getEv(ptr noundef nonnull align 8 dereferenceable(8) %0) #0 comdat align 2 {
  %2 = alloca ptr, align 8
  store ptr %0, ptr %2, align 8
  %3 = load ptr, ptr %2, align 8
  %4 = getelementptr inbounds %"class.std::unique_ptr", ptr %3, i32 0, i32 0
  %5 = call noundef ptr @_ZNKSt15__uniq_ptr_implIfSt14default_deleteIA_fEE6_M_ptrEv(ptr noundef nonnull align 8 dereferenceable(8) %4) #14
  ret ptr %5
}

; Function Attrs: mustprogress nounwind uwtable
define linkonce_odr noundef nonnull align 4 dereferenceable(4) ptr @_ZNKSt10unique_ptrIA_fSt14default_deleteIS0_EEixEm(ptr noundef nonnull align 8 dereferenceable(8) %0, i64 noundef %1) #0 comdat align 2 {
  %3 = alloca ptr, align 8
  %4 = alloca i64, align 8
  store ptr %0, ptr %3, align 8
  store i64 %1, ptr %4, align 8
  %5 = load ptr, ptr %3, align 8
  br label %6

6:                                                ; preds = %2
  br label %7

7:                                                ; preds = %6
  %8 = call noundef ptr @_ZNKSt10unique_ptrIA_fSt14default_deleteIS0_EE3getEv(ptr noundef nonnull align 8 dereferenceable(8) %5) #14
  %9 = load i64, ptr %4, align 8
  %10 = getelementptr inbounds float, ptr %8, i64 %9
  ret ptr %10
}

; Function Attrs: norecurse nounwind uwtable
define internal void @_ZNK5faiss18IndexIVFPQFastScan11compute_LUTEmPKfRKNS_16IndexIVFFastScan15CoarseQuantizedERNS_12AlignedTableIfLi32EEES9_.omp_outlined.3(ptr noalias noundef %0, ptr noalias noundef %1, ptr noundef nonnull align 8 dereferenceable(8) %2, ptr noundef nonnull align 8 dereferenceable(8) %3, ptr noundef nonnull align 8 dereferenceable(8) %4, ptr noundef nonnull align 8 dereferenceable(8) %5, ptr noundef nonnull align 8 dereferenceable(24) %6, ptr noundef %7, ptr noundef nonnull align 8 dereferenceable(8) %8) #13 personality ptr @__gxx_personality_v0 {
  %10 = alloca ptr, align 8
  %11 = alloca ptr, align 8
  %12 = alloca ptr, align 8
  %13 = alloca ptr, align 8
  %14 = alloca ptr, align 8
  %15 = alloca ptr, align 8
  %16 = alloca ptr, align 8
  %17 = alloca ptr, align 8
  %18 = alloca ptr, align 8
  %19 = alloca ptr, align 8
  %20 = alloca i64, align 8
  %21 = alloca i64, align 8
  %22 = alloca i64, align 8
  %23 = alloca i64, align 8
  %24 = alloca i64, align 8
  %25 = alloca i64, align 8
  %26 = alloca i64, align 8
  %27 = alloca i32, align 4
  %28 = alloca i64, align 8
  %29 = alloca i64, align 8
  %30 = alloca ptr, align 8
  %31 = alloca i64, align 8
  store ptr %0, ptr %10, align 8
  store ptr %1, ptr %11, align 8
  store ptr %2, ptr %12, align 8
  store ptr %3, ptr %13, align 8
  store ptr %4, ptr %14, align 8
  store ptr %5, ptr %15, align 8
  store ptr %6, ptr %16, align 8
  store ptr %7, ptr %17, align 8
  store ptr %8, ptr %18, align 8
  %32 = load ptr, ptr %12, align 8
  %33 = load ptr, ptr %13, align 8
  %34 = load ptr, ptr %14, align 8
  %35 = load ptr, ptr %15, align 8
  %36 = load ptr, ptr %16, align 8
  %37 = load ptr, ptr %17, align 8
  %38 = load ptr, ptr %18, align 8
  store ptr %36, ptr %19, align 8
  %39 = load i64, ptr %33, align 8
  %40 = load i64, ptr %32, align 8
  %41 = mul i64 %39, %40
  store i64 %41, ptr %21, align 8
  %42 = load i64, ptr %21, align 8
  %43 = sub i64 %42, 0
  %44 = udiv i64 %43, 1
  %45 = sub i64 %44, 1
  store i64 %45, ptr %22, align 8
  store i64 0, ptr %23, align 8
  %46 = load i64, ptr %21, align 8
  %47 = icmp ult i64 0, %46
  br i1 %47, label %48, label %115

48:                                               ; preds = %9
  store i64 0, ptr %24, align 8
  %49 = load i64, ptr %22, align 8
  store i64 %49, ptr %25, align 8
  store i64 1, ptr %26, align 8
  store i32 0, ptr %27, align 4
  %50 = load ptr, ptr %10, align 8
  %51 = load i32, ptr %50, align 4
  call void @__kmpc_for_static_init_8u(ptr @1, i32 %51, i32 34, ptr %27, ptr %24, ptr %25, ptr %26, i64 1, i64 1)
  %52 = load i64, ptr %25, align 8
  %53 = load i64, ptr %22, align 8
  %54 = icmp ugt i64 %52, %53
  br i1 %54, label %55, label %57

55:                                               ; preds = %48
  %56 = load i64, ptr %22, align 8
  br label %59

57:                                               ; preds = %48
  %58 = load i64, ptr %25, align 8
  br label %59

59:                                               ; preds = %57, %55
  %60 = phi i64 [ %56, %55 ], [ %58, %57 ]
  store i64 %60, ptr %25, align 8
  %61 = load i64, ptr %24, align 8
  store i64 %61, ptr %20, align 8
  br label %62

62:                                               ; preds = %108, %59
  %63 = load i64, ptr %20, align 8
  %64 = load i64, ptr %25, align 8
  %65 = add i64 %64, 1
  %66 = icmp ult i64 %63, %65
  br i1 %66, label %67, label %111

67:                                               ; preds = %62
  %68 = load i64, ptr %20, align 8
  %69 = mul i64 %68, 1
  %70 = add i64 0, %69
  store i64 %70, ptr %28, align 8
  %71 = load i64, ptr %28, align 8
  %72 = load i64, ptr %32, align 8
  %73 = udiv i64 %71, %72
  store i64 %73, ptr %29, align 8
  %74 = load i64, ptr %28, align 8
  %75 = load i64, ptr %35, align 8
  %76 = mul i64 %74, %75
  %77 = invoke noundef nonnull align 4 dereferenceable(4) ptr @_ZNKSt10unique_ptrIA_fSt14default_deleteIS0_EEixEm(ptr noundef nonnull align 8 dereferenceable(8) %34, i64 noundef %76)
          to label %78 unwind label %116

78:                                               ; preds = %67
  store ptr %77, ptr %30, align 8
  %79 = load ptr, ptr %19, align 8
  %80 = getelementptr inbounds %"struct.faiss::IndexIVFFastScan::CoarseQuantized", ptr %79, i32 0, i32 2
  %81 = load ptr, ptr %80, align 8
  %82 = load i64, ptr %28, align 8
  %83 = getelementptr inbounds i64, ptr %81, i64 %82
  %84 = load i64, ptr %83, align 8
  store i64 %84, ptr %31, align 8
  %85 = load i64, ptr %31, align 8
  %86 = icmp sge i64 %85, 0
  br i1 %86, label %87, label %102

87:                                               ; preds = %78
  %88 = getelementptr inbounds i8, ptr %37, i64 48
  %89 = getelementptr inbounds %"struct.faiss::Level1Quantizer", ptr %88, i32 0, i32 0
  %90 = load ptr, ptr %89, align 8
  %91 = load ptr, ptr %38, align 8
  %92 = load i64, ptr %29, align 8
  %93 = load i64, ptr %35, align 8
  %94 = mul i64 %92, %93
  %95 = getelementptr inbounds float, ptr %91, i64 %94
  %96 = load ptr, ptr %30, align 8
  %97 = load i64, ptr %31, align 8
  %98 = load ptr, ptr %90, align 8
  %99 = getelementptr inbounds ptr, ptr %98, i64 14
  %100 = load ptr, ptr %99, align 8
  invoke void %100(ptr noundef nonnull align 8 dereferenceable(36) %90, ptr noundef %95, ptr noundef %96, i64 noundef %97)
          to label %101 unwind label %116

101:                                              ; preds = %87
  br label %106

102:                                              ; preds = %78
  %103 = load ptr, ptr %30, align 8
  %104 = load i64, ptr %35, align 8
  %105 = mul i64 4, %104
  call void @llvm.memset.p0.i64(ptr align 4 %103, i8 -1, i64 %105, i1 false)
  br label %106

106:                                              ; preds = %102, %101
  br label %107

107:                                              ; preds = %106
  br label %108

108:                                              ; preds = %107
  %109 = load i64, ptr %20, align 8
  %110 = add i64 %109, 1
  store i64 %110, ptr %20, align 8
  br label %62

111:                                              ; preds = %62
  br label %112

112:                                              ; preds = %111
  %113 = load ptr, ptr %10, align 8
  %114 = load i32, ptr %113, align 4
  call void @__kmpc_for_static_fini(ptr @1, i32 %114)
  br label %115

115:                                              ; preds = %112, %9
  ret void

116:                                              ; preds = %87, %67
  %117 = landingpad { ptr, i32 }
          catch ptr null
  %118 = extractvalue { ptr, i32 } %117, 0
  call void @__clang_call_terminate(ptr %118) #18
  unreachable
}