; Function Attrs: norecurse nounwind uwtable
define internal void @_ZNK5faiss18IndexIVFPQFastScan11compute_LUTEmPKfRKNS_16IndexIVFFastScan15CoarseQuantizedERNS_12AlignedTableIfLi32EEES9_.omp_outlined.3(ptr noalias nocapture noundef readonly %0, ptr noalias nocapture readnone %1, ptr nocapture noundef nonnull readonly align 8 dereferenceable(8) %2, ptr nocapture noundef nonnull readonly align 8 dereferenceable(8) %3, ptr nocapture noundef nonnull readonly align 8 dereferenceable(8) %4, ptr nocapture noundef nonnull readonly align 8 dereferenceable(8) %5, ptr nocapture noundef nonnull readonly align 8 dereferenceable(24) %6, ptr nocapture noundef readonly %7, ptr nocapture noundef nonnull readonly align 8 dereferenceable(8) %8) #17 personality ptr @__gxx_personality_v0 {
  %10 = alloca i64, align 8
  %11 = alloca i64, align 8
  %12 = alloca i64, align 8
  %13 = alloca i32, align 4
  %14 = load i64, ptr %3, align 8
  %15 = load i64, ptr %2, align 8
  %16 = mul i64 %15, %14
  %.not = icmp eq i64 %16, 0
  br i1 %.not, label %51, label %17

17:                                               ; preds = %9
  %18 = add i64 %16, -1
  store i64 0, ptr %10, align 8
  store i64 %18, ptr %11, align 8
  store i64 1, ptr %12, align 8
  store i32 0, ptr %13, align 4
  %19 = load i32, ptr %0, align 4
  call void @__kmpc_for_static_init_8u(ptr nonnull @1, i32 %19, i32 34, ptr nonnull %13, ptr nonnull %10, ptr nonnull %11, ptr nonnull %12, i64 1, i64 1)
  %20 = load i64, ptr %11, align 8
  %21 = call i64 @llvm.umin.i64(i64 %20, i64 %18)
  store i64 %21, ptr %11, align 8
  %22 = load i64, ptr %10, align 8
  %.not27 = icmp ugt i64 %22, %21
  br i1 %.not27, label %._crit_edge, label %.lr.ph

.lr.ph:                                           ; preds = %17
  %23 = getelementptr inbounds i8, ptr %6, i64 16
  %24 = getelementptr inbounds i8, ptr %7, i64 48
  br label %25

25:                                               ; preds = %.lr.ph, %46
  %.026 = phi i64 [ %22, %.lr.ph ], [ %47, %46 ]
  %26 = load i64, ptr %5, align 8
  %27 = mul i64 %26, %.026
  %28 = load ptr, ptr %4, align 8
  %29 = getelementptr inbounds float, ptr %28, i64 %27
  %30 = load ptr, ptr %23, align 8
  %31 = getelementptr inbounds i64, ptr %30, i64 %.026
  %32 = load i64, ptr %31, align 8
  %33 = icmp sgt i64 %32, -1
  br i1 %33, label %34, label %44

34:                                               ; preds = %25
  %35 = load i64, ptr %2, align 8
  %36 = udiv i64 %.026, %35
  %37 = load ptr, ptr %24, align 8
  %38 = load ptr, ptr %8, align 8
  %39 = mul i64 %36, %26
  %40 = getelementptr inbounds float, ptr %38, i64 %39
  %41 = load ptr, ptr %37, align 8
  %42 = getelementptr inbounds i8, ptr %41, i64 112
  %43 = load ptr, ptr %42, align 8
  invoke void %43(ptr noundef nonnull align 8 dereferenceable(36) %37, ptr noundef %40, ptr noundef nonnull %29, i64 noundef %32)
          to label %46 unwind label %52

44:                                               ; preds = %25
  %45 = shl i64 %26, 2
  call void @llvm.memset.p0.i64(ptr nonnull align 4 %29, i8 -1, i64 %45, i1 false)
  br label %46

46:                                               ; preds = %34, %44
  %47 = add nuw i64 %.026, 1
  %48 = load i64, ptr %11, align 8
  %49 = add i64 %48, 1
  %50 = icmp ult i64 %47, %49
  br i1 %50, label %25, label %._crit_edge

._crit_edge:                                      ; preds = %46, %17
  call void @__kmpc_for_static_fini(ptr nonnull @1, i32 %19)
  br label %51

51:                                               ; preds = %._crit_edge, %9
  ret void

52:                                               ; preds = %34
  %53 = landingpad { ptr, i32 }
          catch ptr null
  %54 = extractvalue { ptr, i32 } %53, 0
  call void @__clang_call_terminate(ptr %54) #25
  unreachable
}